target datalayout = "e-m:e-p270:32:32-p271:32:32-p272:64:64-i64:64-i128:128-f80:128-n8:16:32:64-S128"
target triple = "x86_64-pc-linux-gnu"

%struct.expert_field = type { i32, i32 }
%struct._packet_info = type { ptr, ptr, i32, i32, %struct.nstime_t, %struct.nstime_t, %struct.nstime_t, i8, ptr, ptr, ptr, ptr, %struct._address, %struct._address, %struct._address, %struct._address, %struct._address, %struct._address, i32, ptr, i8, [3 x i8], %struct.anon, i32, i32, i32, i32, ptr, i8, ptr, ptr, i16, i16, i32, i32, i16, i32, i32, ptr, ptr, ptr, i8, i8, i16, i16, i16, i32, i16, i16, ptr, ptr, ptr, ptr, ptr, i32, i32 }
%struct.nstime_t = type { i64, i32 }
%struct._address = type { i32, i32, ptr, ptr }
%struct.anon = type { i8, [3 x i8] }

@hf_bytes = internal global i32 0, align 4
@hf_folder = internal global i32 0, align 4
@hf_knxip_structure_length = internal global i32 0, align 4
@hf_knxip_status = internal global i32 0, align 4
@hf_knxip_busy_time = internal global i32 0, align 4
@hf_knxip_busy_control = internal global i32 0, align 4
@ett_loss = internal global i32 0, align 4
@ei_knxip_error = hidden global %struct.expert_field zeroinitializer, align 4
@.str.231 = private unnamed_addr constant [3 x i8] c"? \00", align 1
@.str.236 = private unnamed_addr constant [20 x i8] c"Available: %u bytes\00", align 1
@.str.237 = private unnamed_addr constant [18 x i8] c"Expected: 6 bytes\00", align 1
@.str.246 = private unnamed_addr constant [26 x i8] c"? Unknown data (%d bytes)\00", align 1
@.str.263 = private unnamed_addr constant [5 x i8] c": %s\00", align 1
@.str.266 = private unnamed_addr constant [4 x i8] c"???\00", align 1
@.str.311 = private unnamed_addr constant [9 x i8] c"Missing \00", align 1
@.str.327 = private unnamed_addr constant [9 x i8] c"%u bytes\00", align 1
@.str.432 = private unnamed_addr constant [10 x i8] c"Busy Info\00", align 1
@.str.433 = private unnamed_addr constant [4 x i8] c" ms\00", align 1
@.str.434 = private unnamed_addr constant [6 x i8] c"%u ms\00", align 1

; Function Attrs: null_pointer_is_valid sspstrong uwtable
define internal ptr @knxip_tree_add_unknown_data(ptr noundef %0, ptr noundef %1, i32 noundef %2, i32 noundef %3) #0 {
  %5 = alloca ptr, align 8
  %6 = alloca ptr, align 8
  %7 = alloca i32, align 4
  %8 = alloca i32, align 4
  store ptr %0, ptr %5, align 8
  store ptr %1, ptr %6, align 8
  store i32 %2, ptr %7, align 4
  store i32 %3, ptr %8, align 4
  %9 = load ptr, ptr %5, align 8
  %10 = load i32, ptr @hf_bytes, align 4
  %11 = load ptr, ptr %6, align 8
  %12 = load i32, ptr %7, align 4
  %13 = load i32, ptr %8, align 4
  %14 = load i32, ptr %8, align 4
  %15 = call ptr (ptr, i32, ptr, i32, i32, ptr, ptr, ...) @proto_tree_add_bytes_format(ptr noundef %9, i32 noundef %10, ptr noundef %11, i32 noundef %12, i32 noundef %13, ptr noundef null, ptr noundef @.str.246, i32 noundef %14)
  ret ptr %15
}

; Function Attrs: null_pointer_is_valid sspstrong uwtable
define internal ptr @knxip_tree_add_status(ptr noundef %0, ptr noundef %1, i32 noundef %2) #0 {
  %4 = alloca ptr, align 8
  %5 = alloca ptr, align 8
  %6 = alloca i32, align 4
  store ptr %0, ptr %4, align 8
  store ptr %1, ptr %5, align 8
  store i32 %2, ptr %6, align 4
  %7 = load ptr, ptr %4, align 8
  %8 = load i32, ptr @hf_knxip_status, align 4
  %9 = load ptr, ptr %5, align 8
  %10 = load i32, ptr %6, align 4
  %11 = call ptr @proto_tree_add_item(ptr noundef %7, i32 noundef %8, ptr noundef %9, i32 noundef %10, i32 noundef 1, i32 noundef 0)
  ret ptr %11
}

; Function Attrs: null_pointer_is_valid sspstrong uwtable
define internal ptr @knxip_tree_add_length(ptr noundef %0, ptr noundef %1, i32 noundef %2, i32 noundef %3) #0 {
  %5 = alloca ptr, align 8
  %6 = alloca ptr, align 8
  %7 = alloca i32, align 4
  %8 = alloca i32, align 4
  store ptr %0, ptr %5, align 8
  store ptr %1, ptr %6, align 8
  store i32 %2, ptr %7, align 4
  store i32 %3, ptr %8, align 4
  %9 = load ptr, ptr %5, align 8
  %10 = load i32, ptr @hf_knxip_structure_length, align 4
  %11 = load ptr, ptr %6, align 8
  %12 = load i32, ptr %7, align 4
  %13 = load i32, ptr %8, align 4
  %14 = load i32, ptr %8, align 4
  %15 = call ptr (ptr, i32, ptr, i32, i32, i32, ptr, ...) @proto_tree_add_uint_format_value(ptr noundef %9, i32 noundef %10, ptr noundef %11, i32 noundef %12, i32 noundef 1, i32 noundef %13, ptr noundef @.str.327, i32 noundef %14)
  ret ptr %15
}

; Function Attrs: null_pointer_is_valid sspstrong uwtable
define internal zeroext i8 @dissect_routing_busy(ptr noundef %0, ptr noundef %1, ptr noundef %2, ptr noundef %3, ptr noundef %4) #0 {
  %6 = alloca ptr, align 8
  %7 = alloca ptr, align 8
  %8 = alloca ptr, align 8
  %9 = alloca ptr, align 8
  %10 = alloca ptr, align 8
  %11 = alloca i32, align 4
  %12 = alloca i32, align 4
  %13 = alloca i8, align 1
  %14 = alloca i32, align 4
  %15 = alloca i8, align 1
  %16 = alloca ptr, align 8
  %17 = alloca [16 x i8], align 16
  %18 = alloca ptr, align 8
  %19 = alloca ptr, align 8
  %20 = alloca i32, align 4
  %21 = alloca ptr, align 8
  store ptr %0, ptr %6, align 8
  store ptr %1, ptr %7, align 8
  store ptr %2, ptr %8, align 8
  store ptr %3, ptr %9, align 8
  store ptr %4, ptr %10, align 8
  call void @llvm.lifetime.start.p0(i64 4, ptr %11) #9
  %22 = load ptr, ptr %10, align 8
  %23 = load i32, ptr %22, align 4
  store i32 %23, ptr %11, align 4
  call void @llvm.lifetime.start.p0(i64 4, ptr %12) #9
  %24 = load ptr, ptr %6, align 8
  %25 = load i32, ptr %11, align 4
  %26 = call i32 @tvb_captured_length_remaining(ptr noundef %24, i32 noundef %25)
  store i32 %26, ptr %12, align 4
  call void @llvm.lifetime.start.p0(i64 1, ptr %13) #9
  %27 = load i32, ptr %12, align 4
  %28 = icmp sle i32 %27, 0
  br i1 %28, label %29, label %30

29:                                               ; preds = %5
  br label %35

30:                                               ; preds = %5
  %31 = load ptr, ptr %6, align 8
  %32 = load i32, ptr %11, align 4
  %33 = call zeroext i8 @tvb_get_uint8(ptr noundef %31, i32 noundef %32)
  %34 = zext i8 %33 to i32
  br label %35

35:                                               ; preds = %30, %29
  %36 = phi i32 [ 0, %29 ], [ %34, %30 ]
  %37 = trunc i32 %36 to i8
  store i8 %37, ptr %13, align 1
  call void @llvm.lifetime.start.p0(i64 4, ptr %14) #9
  %38 = load i8, ptr %13, align 1
  %39 = zext i8 %38 to i32
  %40 = load i32, ptr %12, align 4
  %41 = icmp sle i32 %39, %40
  br i1 %41, label %42, label %45

42:                                               ; preds = %35
  %43 = load i8, ptr %13, align 1
  %44 = zext i8 %43 to i32
  br label %47

45:                                               ; preds = %35
  %46 = load i32, ptr %12, align 4
  br label %47

47:                                               ; preds = %45, %42
  %48 = phi i32 [ %44, %42 ], [ %46, %45 ]
  store i32 %48, ptr %14, align 4
  call void @llvm.lifetime.start.p0(i64 1, ptr %15) #9
  store i8 0, ptr %15, align 1
  call void @llvm.lifetime.start.p0(i64 8, ptr %16) #9
  %49 = load ptr, ptr %9, align 8
  %50 = load i32, ptr @hf_folder, align 4
  %51 = load ptr, ptr %6, align 8
  %52 = load i32, ptr %11, align 4
  %53 = load i32, ptr %14, align 4
  %54 = call ptr (ptr, i32, ptr, i32, i32, ptr, ...) @proto_tree_add_none_format(ptr noundef %49, i32 noundef %50, ptr noundef %51, i32 noundef %52, i32 noundef %53, ptr noundef @.str.432)
  store ptr %54, ptr %16, align 8
  call void @llvm.lifetime.start.p0(i64 16, ptr %17) #9
  %55 = getelementptr inbounds [16 x i8], ptr %17, i64 0, i64 0
  %56 = call i32 (ptr, i64, i32, i64, ptr, ...) @__snprintf_chk(ptr noundef %55, i64 noundef 16, i32 noundef 2, i64 noundef 16, ptr noundef @.str.266)
  %57 = load i8, ptr %13, align 1
  %58 = zext i8 %57 to i32
  %59 = icmp sle i32 %58, 0
  br i1 %59, label %60, label %65

60:                                               ; preds = %47
  %61 = load ptr, ptr %16, align 8
  call void (ptr, ptr, ...) @proto_item_prepend_text(ptr noundef %61, ptr noundef @.str.311)
  %62 = load ptr, ptr %7, align 8
  %63 = load ptr, ptr %16, align 8
  %64 = call ptr (ptr, ptr, ptr, ptr, ...) @expert_add_info_format(ptr noundef %62, ptr noundef %63, ptr noundef @ei_knxip_error, ptr noundef @.str.237)
  br label %162

65:                                               ; preds = %47
  call void @llvm.lifetime.start.p0(i64 8, ptr %18) #9
  %66 = load ptr, ptr %16, align 8
  %67 = load i32, ptr @ett_loss, align 4
  %68 = call ptr @proto_item_add_subtree(ptr noundef %66, i32 noundef %67)
  store ptr %68, ptr %18, align 8
  call void @llvm.lifetime.start.p0(i64 8, ptr %19) #9
  %69 = load ptr, ptr %18, align 8
  %70 = load ptr, ptr %6, align 8
  %71 = load i32, ptr %11, align 4
  %72 = load i8, ptr %13, align 1
  %73 = zext i8 %72 to i32
  %74 = call ptr @knxip_tree_add_length(ptr noundef %69, ptr noundef %70, i32 noundef %71, i32 noundef %73)
  store ptr %74, ptr %19, align 8
  call void @llvm.lifetime.start.p0(i64 4, ptr %20) #9
  %75 = load i32, ptr %11, align 4
  %76 = load i32, ptr %14, align 4
  %77 = add i32 %75, %76
  store i32 %77, ptr %20, align 4
  %78 = load i32, ptr %11, align 4
  %79 = add i32 %78, 1
  store i32 %79, ptr %11, align 4
  %80 = load i8, ptr %13, align 1
  %81 = zext i8 %80 to i32
  %82 = icmp eq i32 %81, 6
  br i1 %82, label %83, label %84

83:                                               ; preds = %65
  store i8 1, ptr %15, align 1
  br label %88

84:                                               ; preds = %65
  %85 = load ptr, ptr %7, align 8
  %86 = load ptr, ptr %19, align 8
  %87 = call ptr (ptr, ptr, ptr, ptr, ...) @expert_add_info_format(ptr noundef %85, ptr noundef %86, ptr noundef @ei_knxip_error, ptr noundef @.str.237)
  br label %88

88:                                               ; preds = %84, %83
  %89 = load i8, ptr %13, align 1
  %90 = zext i8 %89 to i32
  %91 = load i32, ptr %12, align 4
  %92 = icmp sgt i32 %90, %91
  br i1 %92, label %93, label %100

93:                                               ; preds = %88
  %94 = load ptr, ptr %7, align 8
  %95 = load ptr, ptr %19, align 8
  %96 = load i32, ptr %12, align 4
  %97 = call ptr (ptr, ptr, ptr, ptr, ...) @expert_add_info_format(ptr noundef %94, ptr noundef %95, ptr noundef @ei_knxip_error, ptr noundef @.str.236, i32 noundef %96)
  %98 = load i32, ptr %12, align 4
  %99 = trunc i32 %98 to i8
  store i8 %99, ptr %13, align 1
  store i8 0, ptr %15, align 1
  br label %100

100:                                              ; preds = %93, %88
  %101 = load i8, ptr %15, align 1
  %102 = icmp ne i8 %101, 0
  br i1 %102, label %105, label %103

103:                                              ; preds = %100
  %104 = load ptr, ptr %19, align 8
  call void (ptr, ptr, ...) @proto_item_prepend_text(ptr noundef %104, ptr noundef @.str.231)
  br label %105

105:                                              ; preds = %103, %100
  %106 = load i8, ptr %13, align 1
  %107 = zext i8 %106 to i32
  %108 = icmp sge i32 %107, 2
  br i1 %108, label %109, label %161

109:                                              ; preds = %105
  %110 = load ptr, ptr %18, align 8
  %111 = load ptr, ptr %6, align 8
  %112 = load i32, ptr %11, align 4
  %113 = call ptr @knxip_tree_add_status(ptr noundef %110, ptr noundef %111, i32 noundef %112)
  %114 = load i32, ptr %11, align 4
  %115 = add i32 %114, 1
  store i32 %115, ptr %11, align 4
  %116 = load i8, ptr %13, align 1
  %117 = zext i8 %116 to i32
  %118 = icmp sge i32 %117, 4
  br i1 %118, label %119, label %146

119:                                              ; preds = %109
  call void @llvm.lifetime.start.p0(i64 8, ptr %21) #9
  %120 = load ptr, ptr %18, align 8
  %121 = load i32, ptr @hf_knxip_busy_time, align 4
  %122 = load ptr, ptr %6, align 8
  %123 = load i32, ptr %11, align 4
  %124 = call ptr @proto_tree_add_item(ptr noundef %120, i32 noundef %121, ptr noundef %122, i32 noundef %123, i32 noundef 2, i32 noundef 0)
  store ptr %124, ptr %21, align 8
  %125 = load ptr, ptr %21, align 8
  call void (ptr, ptr, ...) @proto_item_append_text(ptr noundef %125, ptr noundef @.str.433)
  %126 = getelementptr inbounds [16 x i8], ptr %17, i64 0, i64 0
  %127 = load ptr, ptr %6, align 8
  %128 = load i32, ptr %11, align 4
  %129 = call zeroext i16 @tvb_get_ntohs(ptr noundef %127, i32 noundef %128)
  %130 = zext i16 %129 to i32
  %131 = call i32 (ptr, i64, i32, i64, ptr, ...) @__snprintf_chk(ptr noundef %126, i64 noundef 16, i32 noundef 2, i64 noundef 16, ptr noundef @.str.434, i32 noundef %130)
  %132 = load i32, ptr %11, align 4
  %133 = add i32 %132, 2
  store i32 %133, ptr %11, align 4
  %134 = load i8, ptr %13, align 1
  %135 = zext i8 %134 to i32
  %136 = icmp sge i32 %135, 6
  br i1 %136, label %137, label %145

137:                                              ; preds = %119
  %138 = load ptr, ptr %18, align 8
  %139 = load i32, ptr @hf_knxip_busy_control, align 4
  %140 = load ptr, ptr %6, align 8
  %141 = load i32, ptr %11, align 4
  %142 = call ptr @proto_tree_add_item(ptr noundef %138, i32 noundef %139, ptr noundef %140, i32 noundef %141, i32 noundef 2, i32 noundef 0)
  %143 = load i32, ptr %11, align 4
  %144 = add i32 %143, 2
  store i32 %144, ptr %11, align 4
  br label %145

145:                                              ; preds = %137, %119
  call void @llvm.lifetime.end.p0(i64 8, ptr %21) #9
  br label %146

146:                                              ; preds = %145, %109
  %147 = load i32, ptr %11, align 4
  %148 = load i32, ptr %20, align 4
  %149 = icmp slt i32 %147, %148
  br i1 %149, label %150, label %158

150:                                              ; preds = %146
  %151 = load ptr, ptr %18, align 8
  %152 = load ptr, ptr %6, align 8
  %153 = load i32, ptr %11, align 4
  %154 = load i32, ptr %20, align 4
  %155 = load i32, ptr %11, align 4
  %156 = sub i32 %154, %155
  %157 = call ptr @knxip_tree_add_unknown_data(ptr noundef %151, ptr noundef %152, i32 noundef %153, i32 noundef %156)
  br label %158

158:                                              ; preds = %150, %146
  %159 = load ptr, ptr %16, align 8
  %160 = getelementptr inbounds [16 x i8], ptr %17, i64 0, i64 0
  call void (ptr, ptr, ...) @proto_item_append_text(ptr noundef %159, ptr noundef @.str.263, ptr noundef %160)
  br label %161

161:                                              ; preds = %158, %105
  call void @llvm.lifetime.end.p0(i64 4, ptr %20) #9
  call void @llvm.lifetime.end.p0(i64 8, ptr %19) #9
  call void @llvm.lifetime.end.p0(i64 8, ptr %18) #9
  br label %162

162:                                              ; preds = %161, %60
  %163 = load ptr, ptr %7, align 8
  %164 = icmp ne ptr %163, null
  br i1 %164, label %165, label %170

165:                                              ; preds = %162
  %166 = load ptr, ptr %7, align 8
  %167 = getelementptr inbounds nuw %struct._packet_info, ptr %166, i32 0, i32 1
  %168 = load ptr, ptr %167, align 8
  %169 = getelementptr inbounds [16 x i8], ptr %17, i64 0, i64 0
  call void (ptr, i32, ptr, ...) @col_append_fstr(ptr noundef %168, i32 noundef 25, ptr noundef @.str.263, ptr noundef %169)
  br label %170

170:                                              ; preds = %165, %162
  %171 = load ptr, ptr %8, align 8
  %172 = getelementptr inbounds [16 x i8], ptr %17, i64 0, i64 0
  call void (ptr, ptr, ...) @proto_item_append_text(ptr noundef %171, ptr noundef @.str.263, ptr noundef %172)
  %173 = load i8, ptr %15, align 1
  %174 = icmp ne i8 %173, 0
  br i1 %174, label %177, label %175

175:                                              ; preds = %170
  %176 = load ptr, ptr %16, align 8
  call void (ptr, ptr, ...) @proto_item_prepend_text(ptr noundef %176, ptr noundef @.str.231)
  br label %177

177:                                              ; preds = %175, %170
  %178 = load i8, ptr %13, align 1
  %179 = zext i8 %178 to i32
  %180 = load ptr, ptr %10, align 8
  %181 = load i32, ptr %180, align 4
  %182 = add i32 %181, %179
  store i32 %182, ptr %180, align 4
  %183 = load i8, ptr %15, align 1
  call void @llvm.lifetime.end.p0(i64 16, ptr %17) #9
  call void @llvm.lifetime.end.p0(i64 8, ptr %16) #9
  call void @llvm.lifetime.end.p0(i64 1, ptr %15) #9
  call void @llvm.lifetime.end.p0(i64 4, ptr %14) #9
  call void @llvm.lifetime.end.p0(i64 1, ptr %13) #9
  call void @llvm.lifetime.end.p0(i64 4, ptr %12) #9
  call void @llvm.lifetime.end.p0(i64 4, ptr %11) #9
  ret i8 %183
}