; Function Attrs: null_pointer_is_valid sspstrong uwtable
define internal fastcc zeroext range(i8 0, 2) i8 @dissect_routing_busy(ptr noundef %0, ptr noundef %1, ptr noundef %2, ptr noundef %3, ptr noundef captures(none) %4) unnamed_addr #0 {
  %6 = alloca [16 x i8], align 16
  %7 = load i32, ptr %4, align 4
  %8 = tail call i32 @tvb_captured_length_remaining(ptr noundef %0, i32 noundef %7)
  %9 = icmp slt i32 %8, 1
  br i1 %9, label %12, label %10

10:                                               ; preds = %5
  %11 = tail call zeroext i8 @tvb_get_uint8(ptr noundef %0, i32 noundef %7)
  br label %12

12:                                               ; preds = %5, %10
  %13 = phi i8 [ %11, %10 ], [ 0, %5 ]
  %14 = zext i8 %13 to i32
  %15 = tail call i32 @llvm.smin.i32(i32 %8, i32 %14)
  %16 = load i32, ptr @hf_folder, align 4
  %17 = tail call ptr (ptr, i32, ptr, i32, i32, ptr, ...) @proto_tree_add_none_format(ptr noundef %3, i32 noundef %16, ptr noundef %0, i32 noundef %7, i32 noundef %15, ptr noundef nonnull @.str.432)
  call void @llvm.lifetime.start.p0(i64 16, ptr nonnull %6) #11
  %18 = call i32 (ptr, i64, i32, i64, ptr, ...) @__snprintf_chk(ptr noundef nonnull %6, i64 noundef 16, i32 noundef 2, i64 noundef 16, ptr noundef nonnull @.str.266)
  %19 = icmp eq i8 %13, 0
  br i1 %19, label %20, label %22

20:                                               ; preds = %12
  call void (ptr, ptr, ...) @proto_item_prepend_text(ptr noundef %17, ptr noundef nonnull @.str.311)
  %21 = call ptr (ptr, ptr, ptr, ptr, ...) @expert_add_info_format(ptr noundef %1, ptr noundef %17, ptr noundef nonnull @ei_knxip_error, ptr noundef nonnull @.str.237)
  br label %59

22:                                               ; preds = %12
  %23 = load i32, ptr @ett_loss, align 4
  %24 = call ptr @proto_item_add_subtree(ptr noundef %17, i32 noundef %23)
  %25 = load i32, ptr @hf_knxip_structure_length, align 4
  %26 = call ptr (ptr, i32, ptr, i32, i32, i32, ptr, ...) @proto_tree_add_uint_format_value(ptr noundef %24, i32 noundef %25, ptr noundef %0, i32 noundef %7, i32 noundef 1, i32 noundef range(i32 1, 256) %14, ptr noundef nonnull @.str.327, i32 noundef range(i32 1, 256) %14)
  %27 = add i32 %15, %7
  %28 = add i32 %7, 1
  %.not = icmp eq i8 %13, 6
  br i1 %.not, label %29, label %.thread88

29:                                               ; preds = %22
  %30 = icmp slt i32 %8, %14
  br i1 %30, label %.thread, label %.thread90

.thread88:                                        ; preds = %22
  %31 = call ptr (ptr, ptr, ptr, ptr, ...) @expert_add_info_format(ptr noundef %1, ptr noundef %26, ptr noundef nonnull @ei_knxip_error, ptr noundef nonnull @.str.237)
  %32 = icmp slt i32 %8, %14
  br i1 %32, label %.thread, label %.thread89

.thread:                                          ; preds = %.thread88, %29
  %33 = call ptr (ptr, ptr, ptr, ptr, ...) @expert_add_info_format(ptr noundef %1, ptr noundef %26, ptr noundef nonnull @ei_knxip_error, ptr noundef nonnull @.str.236, i32 noundef %8)
  %34 = trunc i32 %8 to i8
  br label %.thread89

.thread89:                                        ; preds = %.thread88, %.thread
  %.17187 = phi i8 [ %34, %.thread ], [ %13, %.thread88 ]
  call void (ptr, ptr, ...) @proto_item_prepend_text(ptr noundef %26, ptr noundef nonnull @.str.231)
  %35 = icmp ugt i8 %.17187, 1
  br i1 %35, label %.thread90, label %59

.thread90:                                        ; preds = %29, %.thread89
  %.28494 = phi i8 [ 0, %.thread89 ], [ 1, %29 ]
  %.1718693 = phi i8 [ %.17187, %.thread89 ], [ 6, %29 ]
  %36 = load i32, ptr @hf_knxip_status, align 4
  %37 = call ptr @proto_tree_add_item(ptr noundef %24, i32 noundef %36, ptr noundef %0, i32 noundef %28, i32 noundef 1, i32 noundef 0)
  %38 = add i32 %7, 2
  %39 = icmp ugt i8 %.1718693, 3
  br i1 %39, label %40, label %52

40:                                               ; preds = %.thread90
  %41 = load i32, ptr @hf_knxip_busy_time, align 4
  %42 = call ptr @proto_tree_add_item(ptr noundef %24, i32 noundef %41, ptr noundef %0, i32 noundef %38, i32 noundef 2, i32 noundef 0)
  call void (ptr, ptr, ...) @proto_item_append_text(ptr noundef %42, ptr noundef nonnull @.str.433)
  %43 = call zeroext i16 @tvb_get_ntohs(ptr noundef %0, i32 noundef %38)
  %44 = zext i16 %43 to i32
  %45 = call i32 (ptr, i64, i32, i64, ptr, ...) @__snprintf_chk(ptr noundef nonnull %6, i64 noundef 16, i32 noundef 2, i64 noundef 16, ptr noundef nonnull @.str.434, i32 noundef %44)
  %46 = add i32 %7, 4
  %47 = icmp ugt i8 %.1718693, 5
  br i1 %47, label %48, label %52

48:                                               ; preds = %40
  %49 = load i32, ptr @hf_knxip_busy_control, align 4
  %50 = call ptr @proto_tree_add_item(ptr noundef %24, i32 noundef %49, ptr noundef %0, i32 noundef %46, i32 noundef 2, i32 noundef 0)
  %51 = add i32 %7, 6
  br label %52

52:                                               ; preds = %40, %48, %.thread90
  %.0 = phi i32 [ %38, %.thread90 ], [ %51, %48 ], [ %46, %40 ]
  %53 = icmp slt i32 %.0, %27
  br i1 %53, label %54, label %58

54:                                               ; preds = %52
  %55 = sub i32 %27, %.0
  %56 = load i32, ptr @hf_bytes, align 4
  %57 = call ptr (ptr, i32, ptr, i32, i32, ptr, ptr, ...) @proto_tree_add_bytes_format(ptr noundef %24, i32 noundef %56, ptr noundef %0, i32 noundef %.0, i32 noundef %55, ptr noundef null, ptr noundef nonnull @.str.246, i32 noundef %55)
  br label %58

58:                                               ; preds = %54, %52
  call void (ptr, ptr, ...) @proto_item_append_text(ptr noundef %17, ptr noundef nonnull @.str.263, ptr noundef nonnull %6)
  br label %59

59:                                               ; preds = %.thread89, %58, %20
  %.072 = phi i8 [ 0, %20 ], [ %.28494, %58 ], [ 0, %.thread89 ]
  %.070 = phi i8 [ 0, %20 ], [ %.1718693, %58 ], [ %.17187, %.thread89 ]
  %.not79 = icmp eq ptr %1, null
  br i1 %.not79, label %63, label %60

60:                                               ; preds = %59
  %61 = getelementptr inbounds nuw i8, ptr %1, i64 8
  %62 = load ptr, ptr %61, align 8
  call void (ptr, i32, ptr, ...) @col_append_fstr(ptr noundef %62, i32 noundef 25, ptr noundef nonnull @.str.263, ptr noundef nonnull %6)
  br label %63

63:                                               ; preds = %60, %59
  call void (ptr, ptr, ...) @proto_item_append_text(ptr noundef %2, ptr noundef nonnull @.str.263, ptr noundef nonnull %6)
  %.not80 = icmp eq i8 %.072, 0
  br i1 %.not80, label %64, label %65

64:                                               ; preds = %63
  call void (ptr, ptr, ...) @proto_item_prepend_text(ptr noundef %17, ptr noundef nonnull @.str.231)
  br label %65

65:                                               ; preds = %64, %63
  %66 = zext i8 %.070 to i32
  %67 = load i32, ptr %4, align 4
  %68 = add i32 %67, %66
  store i32 %68, ptr %4, align 4
  call void @llvm.lifetime.end.p0(i64 16, ptr nonnull %6) #11
  ret i8 %.072
}